target datalayout = "e-m:e-p270:32:32-p271:32:32-p272:64:64-i64:64-i128:128-f80:128-n8:16:32:64-S128"
target triple = "x86_64-pc-linux-gnu"

%struct.ElsDecCtx = type { ptr, i32, i64, i32, i32, i32, i32 }

; Function Attrs: nounwind uwtable
define internal i32 @els_import_byte(ptr noundef %0) #0 {
  %2 = alloca i32, align 4
  %3 = alloca ptr, align 8
  store ptr %0, ptr %3, align 8, !tbaa !4
  %4 = load ptr, ptr %3, align 8, !tbaa !4
  %5 = getelementptr inbounds nuw %struct.ElsDecCtx, ptr %4, i32 0, i32 2
  %6 = load i64, ptr %5, align 8, !tbaa !19
  %7 = icmp ne i64 %6, 0
  br i1 %7, label %11, label %8

8:                                                ; preds = %1
  %9 = load ptr, ptr %3, align 8, !tbaa !4
  %10 = getelementptr inbounds nuw %struct.ElsDecCtx, ptr %9, i32 0, i32 6
  store i32 -541478725, ptr %10, align 4, !tbaa !20
  store i32 -541478725, ptr %2, align 4
  br label %37

11:                                               ; preds = %1
  %12 = load ptr, ptr %3, align 8, !tbaa !4
  %13 = getelementptr inbounds nuw %struct.ElsDecCtx, ptr %12, i32 0, i32 1
  %14 = load i32, ptr %13, align 8, !tbaa !14
  %15 = shl i32 %14, 8
  %16 = load ptr, ptr %3, align 8, !tbaa !4
  %17 = getelementptr inbounds nuw %struct.ElsDecCtx, ptr %16, i32 0, i32 0
  %18 = load ptr, ptr %17, align 8, !tbaa !18
  %19 = getelementptr inbounds nuw i8, ptr %18, i32 1
  store ptr %19, ptr %17, align 8, !tbaa !18
  %20 = load i8, ptr %18, align 1, !tbaa !13
  %21 = zext i8 %20 to i32
  %22 = or i32 %15, %21
  %23 = load ptr, ptr %3, align 8, !tbaa !4
  %24 = getelementptr inbounds nuw %struct.ElsDecCtx, ptr %23, i32 0, i32 1
  store i32 %22, ptr %24, align 8, !tbaa !14
  %25 = load ptr, ptr %3, align 8, !tbaa !4
  %26 = getelementptr inbounds nuw %struct.ElsDecCtx, ptr %25, i32 0, i32 2
  %27 = load i64, ptr %26, align 8, !tbaa !19
  %28 = add i64 %27, -1
  store i64 %28, ptr %26, align 8, !tbaa !19
  %29 = load ptr, ptr %3, align 8, !tbaa !4
  %30 = getelementptr inbounds nuw %struct.ElsDecCtx, ptr %29, i32 0, i32 3
  %31 = load i32, ptr %30, align 8, !tbaa !21
  %32 = add nsw i32 %31, 36
  store i32 %32, ptr %30, align 8, !tbaa !21
  %33 = load ptr, ptr %3, align 8, !tbaa !4
  %34 = getelementptr inbounds nuw %struct.ElsDecCtx, ptr %33, i32 0, i32 4
  %35 = load i32, ptr %34, align 4, !tbaa !22
  %36 = shl i32 %35, 8
  store i32 %36, ptr %34, align 4, !tbaa !22
  store i32 0, ptr %2, align 4
  br label %37

37:                                               ; preds = %11, %8
  %38 = load i32, ptr %2, align 4
  ret i32 %38
}