; Function Attrs: mustprogress nofree norecurse nosync nounwind willreturn memory(read, argmem: readwrite, inaccessiblemem: none) uwtable
define internal fastcc range(i32 -541478725, 1) i32 @els_import_byte(ptr noundef captures(none) %0) unnamed_addr #4 {
  %2 = getelementptr inbounds nuw i8, ptr %0, i64 16
  %3 = load i64, ptr %2, align 8, !tbaa !14
  %.not = icmp eq i64 %3, 0
  br i1 %.not, label %4, label %6

4:                                                ; preds = %1
  %5 = getelementptr inbounds nuw i8, ptr %0, i64 36
  store i32 -541478725, ptr %5, align 4, !tbaa !15
  br label %22

6:                                                ; preds = %1
  %7 = getelementptr inbounds nuw i8, ptr %0, i64 8
  %8 = load i32, ptr %7, align 8, !tbaa !7
  %9 = shl i32 %8, 8
  %10 = load ptr, ptr %0, align 8, !tbaa !13
  %11 = getelementptr inbounds nuw i8, ptr %10, i64 1
  store ptr %11, ptr %0, align 8, !tbaa !13
  %12 = load i8, ptr %10, align 1, !tbaa !4
  %13 = zext i8 %12 to i32
  %14 = or disjoint i32 %9, %13
  store i32 %14, ptr %7, align 8, !tbaa !7
  %15 = add i64 %3, -1
  store i64 %15, ptr %2, align 8, !tbaa !14
  %16 = getelementptr inbounds nuw i8, ptr %0, i64 24
  %17 = load i32, ptr %16, align 8, !tbaa !16
  %18 = add nsw i32 %17, 36
  store i32 %18, ptr %16, align 8, !tbaa !16
  %19 = getelementptr inbounds nuw i8, ptr %0, i64 28
  %20 = load i32, ptr %19, align 4, !tbaa !17
  %21 = shl i32 %20, 8
  store i32 %21, ptr %19, align 4, !tbaa !17
  br label %22

22:                                               ; preds = %6, %4
  %.0 = phi i32 [ 0, %6 ], [ -541478725, %4 ]
  ret i32 %.0
}